Certificate:
    Data:
        Version: 3 (0x2)
        Serial Number: 1 (0x1)
        Signature Algorithm: md5WithRSAEncryption
        Issuer: CN=okcomps.com, ST=OH, C=US/emailAddress=root@okcomps.com, O=OK Computers LLC, OU=IT Department
        Validity
            Not Before: Jan 21 13:19:20 2011 GMT
            Not After : Jan 20 13:19:20 2016 GMT
        Subject: CN=test.okcomps.com, ST=OH, C=US/emailAddress=root@okcomps.com, O=OK Computers LLC, OU=IT
        Subject Public Key Info:
            Public Key Algorithm: rsaEncryption
            RSA Public Key: (1024 bit)
                Modulus (1024 bit):
                    00:ca:d0:a2:7c:5d:0c:bc:df:3b:1c:d2:b7:d4:b3:
                    68:12:1b:3a:df:5e:75:f6:9f:71:1a:b2:29:76:e7:
                    55:eb:2d:d2:cf:c1:a7:2f:54:91:68:cc:f0:ce:10:
                    42:d4:d2:82:0d:56:f0:16:aa:a8:a4:f3:4f:c3:f7:
                    55:3c:a0:90:c3:a9:04:63:86:90:7f:64:49:77:0d:
                    9b:7b:02:e2:04:ec:52:08:c4:01:72:e4:e6:89:18:
                    f6:fc:cc:8d:b6:9b:24:f4:c6:a9:78:67:e4:15:d4:
                    68:1e:da:67:4f:d9:40:48:44:f0:9a:ae:5a:87:24:
                    2a:b5:2e:83:d6:ad:f4:e5:9b
                Exponent: 65537 (0x10001)
        X509v3 extensions:
            X509v3 Subject Alternative Name: 
                DNS:alt.tradeshowhell.com
            X509v3 Basic Constraints: 
                CA:FALSE
            Netscape Cert Type: 
                SSL Server
    Signature Algorithm: md5WithRSAEncryption
        ab:c9:75:73:f9:79:31:34:b9:3b:83:2f:3f:9e:4e:33:01:98:
        37:9b:bd:08:d6:14:ea:d9:a1:fa:7a:0d:ae:dc:00:fd:a6:01:
        ba:3e:d6:ed:8b:8d:43:ba:41:51:08:c6:c5:db:84:34:34:07:
        17:19:35:5d:8c:7f:37:b8:c1:02:c3:22:d9:dc:f4:85:4d:1c:
        6e:44:43:0d:7a:5a:de:4c:ba:a3:4b:a3:9b:07:3a:dd:f0:69:
        3d:89:65:e4:0d:f6:0d:04:58:00:74:b6:11:5e:e2:a7:1c:8d:
        d4:83:e3:9b:93:85:f7:d1:7c:5f:67:0c:38:02:1f:d6:44:0d:
        73:22:5f:d2:ff:e1:ef:be:11:e4:e7:1c:b7:d6:8b:b6:78:bb:
        09:e1:46:94:48:24:98:88:b2:6d:27:2a:85:5a:cd:34:b5:c4:
        74:1b:58:97:f8:4a:aa:13:e1:13:4d:86:80:36:b2:9a:31:3a:
        be:3f:c7:1b:76:71:e9:b5:7d:4b:61:9b:59:ad:c7:1b:2e:b8:
        7c:bd:6f:f8:06:44:eb:7b:fd:53:45:b0:fa:a4:37:b4:56:e2:
        87:ba:d4:5c:49:db:7d:31:a4:42:d3:d7:47:a3:6f:cb:e3:9d:
        5c:be:2e:eb:1b:0a:06:e2:ce:d6:c4:81:c2:c1:85:36:dc:4c:
        03:5b:b3:14
-----BEGIN CERTIFICATE-----
MIIDPDCCAiSgAwIBAgIBATANBgkqhkiG9w0BAQQFADCBhDEUMBIGA1UEAxMLb2tj
b21wcy5jb20xCzAJBgNVBAgTAk9IMQswCQYDVQQGEwJVUzEfMB0GCSqGSIb3DQEJ
ARYQcm9vdEBva2NvbXBzLmNvbTEZMBcGA1UEChMQT0sgQ29tcHV0ZXJzIExMQzEW
MBQGA1UECxMNSVQgRGVwYXJ0bWVudDAeFw0xMTAxMjExMzE5MjBaFw0xNjAxMjAx
MzE5MjBaMH4xGTAXBgNVBAMTEHRlc3Qub2tjb21wcy5jb20xCzAJBgNVBAgTAk9I
MQswCQYDVQQGEwJVUzEfMB0GCSqGSIb3DQEJARYQcm9vdEBva2NvbXBzLmNvbTEZ
MBcGA1UEChMQT0sgQ29tcHV0ZXJzIExMQzELMAkGA1UECxMCSVQwgZ8wDQYJKoZI
hvcNAQEBBQADgY0AMIGJAoGBAMrQonxdDLzfOxzSt9SzaBIbOt9edfafcRqyKXbn
Vest0s/Bpy9UkWjM8M4QQtTSgg1W8BaqqKTzT8P3VTygkMOpBGOGkH9kSXcNm3sC
4gTsUgjEAXLk5okY9vzMjbabJPTGqXhn5BXUaB7aZ0/ZQEhE8JquWockKrUug9at
9OWbAgMBAAGjQjBAMCAGA1UdEQQZMBeCFWFsdC50cmFkZXNob3doZWxsLmNvbTAJ
BgNVHRMEAjAAMBEGCWCGSAGG+EIBAQQEAwIGQDANBgkqhkiG9w0BAQQFAAOCAQEA
q8l1c/l5MTS5O4MvP55OMwGYN5u9CNYU6tmh+noNrtwA/aYBuj7W7YuNQ7pBUQjG
xduENDQHFxk1XYx/N7jBAsMi2dz0hU0cbkRDDXpa3ky6o0ujmwc63fBpPYll5A32
DQRYAHS2EV7ipxyN1IPjm5OF99F8X2cMOAIf1kQNcyJf0v/h774R5Occt9aLtni7
CeFGlEgkmIiybScqhVrNNLXEdBtYl/hKqhPhE02GgDaymjE6vj/HG3Zx6bV9S2Gb
Wa3HGy64fL1v+AZE63v9U0Ww+qQ3tFbih7rUXEnbfTGkQtPXR6Nvy+OdXL4u6xsK
BuLO1sSBwsGFNtxMA1uzFA==
-----END CERTIFICATE-----
