Certificate:
    Data:
        Version: 3 (0x2)
        Serial Number: 4 (0x4)
        Signature Algorithm: md5WithRSAEncryption
        Issuer: CN=okcomps.com, ST=OH, C=US/emailAddress=root@okcomps.com, O=OK Computers LLC, OU=IT Department
        Validity
            Not Before: Jan 22 16:49:23 2011 GMT
            Not After : Jan 21 16:49:23 2016 GMT
        Subject: CN=testclient.okcomps.com, ST=OH, C=US/emailAddress=root@okcomps.com, O=OK Computers LLC, OU=IT
        Subject Public Key Info:
            Public Key Algorithm: rsaEncryption
            RSA Public Key: (1024 bit)
                Modulus (1024 bit):
                    00:e3:a1:8c:40:df:26:a5:52:31:f2:65:94:fa:f3:
                    32:1a:a1:d1:06:e3:32:f4:ae:17:27:38:49:c4:8f:
                    f0:6a:61:4a:b1:12:a8:ff:22:5e:a8:b8:d2:be:24:
                    83:1d:48:e4:62:8d:b8:a3:a0:b7:68:d2:dc:53:11:
                    fd:cd:87:67:7e:30:76:41:18:d4:97:7d:4f:75:8c:
                    b3:17:6a:d4:5f:e2:fa:4c:c3:e0:a5:2b:d5:b2:f0:
                    9a:fc:8c:ec:fb:99:8c:51:b0:62:54:91:c2:64:d1:
                    79:41:da:8f:88:40:76:81:29:d0:0a:f7:63:51:76:
                    7a:23:f1:ca:57:d1:0e:1b:b5
                Exponent: 65537 (0x10001)
        X509v3 extensions:
            X509v3 Subject Alternative Name: 
                DNS:alt.tradeshowhell.com
            X509v3 Basic Constraints: 
                CA:FALSE
            Netscape Cert Type: 
                SSL Client
    Signature Algorithm: md5WithRSAEncryption
        d0:1c:c8:74:87:06:0b:96:3d:05:4e:19:e4:19:9e:0a:12:76:
        57:c7:a3:24:34:dd:af:e9:67:cd:99:2a:43:d7:e6:b6:18:eb:
        b4:b0:63:be:e6:d8:ff:99:95:81:a7:88:b9:68:b9:0e:2f:cb:
        2b:2b:7c:0e:c4:66:d3:f4:89:91:ba:03:0a:35:e1:6b:19:0e:
        41:c8:f3:3c:bf:47:c1:60:ee:88:74:0a:41:08:4e:82:be:ae:
        46:b0:31:8d:f8:10:84:1a:af:03:52:39:87:b7:46:2f:7f:2e:
        f1:a6:03:4e:3c:bb:ea:0c:08:8f:77:17:b7:c8:d2:a5:a7:a0:
        56:9b:c8:5b:53:d1:36:01:96:85:46:c9:73:e5:cf:40:8c:fa:
        b2:c1:be:3e:8f:24:97:c3:35:ec:45:59:b3:f4:9b:3f:b0:50:
        5d:2b:d3:19:11:c6:5d:c1:61:26:db:34:4a:69:46:5a:c1:f2:
        43:f9:5a:4d:71:44:2a:62:28:c0:ac:51:63:35:88:cc:6d:9a:
        db:7b:d1:a1:a2:e4:86:96:83:48:73:7f:c9:a3:05:e6:46:82:
        1c:b4:99:9e:7a:b6:1e:87:08:e6:1d:b1:04:0f:ed:19:a6:b1:
        ce:71:47:ce:73:de:8c:d8:13:aa:a8:6f:b0:04:0c:9b:b7:d1:
        61:da:90:e3
-----BEGIN CERTIFICATE-----
MIIDQzCCAiugAwIBAgIBBDANBgkqhkiG9w0BAQQFADCBhDEUMBIGA1UEAxMLb2tj
b21wcy5jb20xCzAJBgNVBAgTAk9IMQswCQYDVQQGEwJVUzEfMB0GCSqGSIb3DQEJ
ARYQcm9vdEBva2NvbXBzLmNvbTEZMBcGA1UEChMQT0sgQ29tcHV0ZXJzIExMQzEW
MBQGA1UECxMNSVQgRGVwYXJ0bWVudDAeFw0xMTAxMjIxNjQ5MjNaFw0xNjAxMjEx
NjQ5MjNaMIGEMR8wHQYDVQQDExZ0ZXN0Y2xpZW50Lm9rY29tcHMuY29tMQswCQYD
VQQIEwJPSDELMAkGA1UEBhMCVVMxHzAdBgkqhkiG9w0BCQEWEHJvb3RAb2tjb21w
cy5jb20xGTAXBgNVBAoTEE9LIENvbXB1dGVycyBMTEMxCzAJBgNVBAsTAklUMIGf
MA0GCSqGSIb3DQEBAQUAA4GNADCBiQKBgQDjoYxA3yalUjHyZZT68zIaodEG4zL0
rhcnOEnEj/BqYUqxEqj/Il6ouNK+JIMdSORijbijoLdo0txTEf3Nh2d+MHZBGNSX
fU91jLMXatRf4vpMw+ClK9Wy8Jr8jOz7mYxRsGJUkcJk0XlB2o+IQHaBKdAK92NR
dnoj8cpX0Q4btQIDAQABo0IwQDAgBgNVHREEGTAXghVhbHQudHJhZGVzaG93aGVs
bC5jb20wCQYDVR0TBAIwADARBglghkgBhvhCAQEEBAMCB4AwDQYJKoZIhvcNAQEE
BQADggEBANAcyHSHBguWPQVOGeQZngoSdlfHoyQ03a/pZ82ZKkPX5rYY67SwY77m
2P+ZlYGniLlouQ4vyysrfA7EZtP0iZG6Awo14WsZDkHI8zy/R8Fg7oh0CkEIToK+
rkawMY34EIQarwNSOYe3Ri9/LvGmA048u+oMCI93F7fI0qWnoFabyFtT0TYBloVG
yXPlz0CM+rLBvj6PJJfDNexFWbP0mz+wUF0r0xkRxl3BYSbbNEppRlrB8kP5Wk1x
RCpiKMCsUWM1iMxtmtt70aGi5IaWg0hzf8mjBeZGghy0mZ56th6HCOYdsQQP7Rmm
sc5xR85z3ozYE6qob7AEDJu30WHakOM=
-----END CERTIFICATE-----
